target datalayout = "e-m:e-p270:32:32-p271:32:32-p272:64:64-i64:64-i128:128-f80:128-n8:16:32:64-S128"
target triple = "x86_64-pc-linux-gnu"

@current_state = internal global i32 0, align 4
@rb_eRuntimeError = external global i64, align 8
@.str.2 = private unnamed_addr constant [36 x i8] c"coverage measurement is not running\00", align 1

; Function Attrs: nounwind sspstrong uwtable
define i64 @rb_coverage_suspend(i64 noundef %0) #0 {
  %2 = alloca i64, align 8
  store i64 %0, ptr %2, align 8, !tbaa !6
  %3 = load i32, ptr @current_state, align 4, !tbaa !10
  %4 = icmp ne i32 %3, 2
  br i1 %4, label %5, label %7

5:                                                ; preds = %1
  %6 = load i64, ptr @rb_eRuntimeError, align 8, !tbaa !6
  call void (i64, ptr, ...) @rb_raise(i64 noundef %6, ptr noundef @.str.2) #15
  unreachable

7:                                                ; preds = %1
  call void @rb_suspend_coverages()
  store i32 1, ptr @current_state, align 4, !tbaa !10
  ret i64 4
}