; Function Attrs: nounwind sspstrong uwtable
define noundef i64 @rb_coverage_suspend(i64 %0) #0 {
  %2 = load i32, ptr @current_state, align 4, !tbaa !6
  %.not = icmp eq i32 %2, 2
  br i1 %.not, label %5, label %3

3:                                                ; preds = %1
  %4 = load i64, ptr @rb_eRuntimeError, align 8, !tbaa !10
  tail call void (i64, ptr, ...) @rb_raise(i64 noundef %4, ptr noundef nonnull @.str.2) #8
  unreachable

5:                                                ; preds = %1
  tail call void @rb_suspend_coverages() #9
  store i32 1, ptr @current_state, align 4, !tbaa !6
  ret i64 4
}